(dp1
S'saved_by_info'
p2
(dp3
sS'tags'
p4
(dp5
S'pub'
p6
(lp7
I1
asVmca13011.nirmauni.ac.in
p8
(lp9
I0
assS'id_number'
p10
I27
sS'pretty_print'
p11
I00
sS'system'
p12
S'sage'
p13
sS'published_id_number'
p14
NsS'owner'
p15
g6
sS'viewers'
p16
(lp17
sS'ratings'
p18
(lp19
sS'collaborators'
p20
(lp21
sS'name'
p22
VRelational Model
p23
sS'auto_publish'
p24
I00
sS'last_change'
p25
(g8
F1394433448.979919
tp26
sS'worksheet_that_was_published'
p27
(Vmca13011.nirmauni.ac.in
p28
I3
tp29
s.