(lp1
(lp2
S'_sage_'
p3
a(dp4
S'username'
p5
g3
sS'account_type'
p6
S'user'
p7
sS'temporary_password'
p8
S''
sS'is_suspended'
p9
I00
sS'external_auth'
p10
NsS'viewable_worksheets'
p11
c__builtin__
set
p12
((ltRp13
sS'email_confirmed'
p14
I00
sS'conf'
p15
(dp16
sS'password'
p17
S'sha256$f05ec492862f40250daddd9486776115cff9d28f06bfa06a9676c4571e6280a$7d86490a31fceb0e492251d9e359f29c70f95d94011bbbb4d6e43f9525d3a4eb'
p18
sS'email'
p19
S''
saa(lp20
S'admin'
p21
a(dp22
S'username'
p23
g21
sS'account_type'
p24
g21
sS'temporary_password'
p25
S''
sS'is_suspended'
p26
I00
sS'external_auth'
p27
NsS'viewable_worksheets'
p28
g12
((ltRp29
sS'email_confirmed'
p30
I00
sS'conf'
p31
(dp32
sS'password'
p33
S'sha256$60f36e361ef32f8b25d7ca0cf019f1f2c38dfb6b753705968cf54f3f06a632dd$0fc30b3a9a6ab23d215080bef0a1d9eb3bdb7630e3c1298a786d21f7abba33de'
p34
sS'email'
p35
S''
saa(lp36
S'guest'
p37
a(dp38
S'username'
p39
g37
sS'account_type'
p40
g37
sS'temporary_password'
p41
S''
sS'is_suspended'
p42
I00
sS'external_auth'
p43
NsS'viewable_worksheets'
p44
g12
((ltRp45
sS'email_confirmed'
p46
I00
sS'conf'
p47
(dp48
sS'password'
p49
S'sha256$3658272750c88e0cb66f3a288bf088828f325a323c5356fda195c7197353edfc$ace8d37f3e5efa6d782657571c779cb47dd6eb624d8f17cf466254fc3db7a1fd'
p50
sS'email'
p51
S''
saa(lp52
S'pub'
p53
a(dp54
S'username'
p55
g53
sS'account_type'
p56
g7
sS'temporary_password'
p57
S''
sS'is_suspended'
p58
I00
sS'external_auth'
p59
NsS'viewable_worksheets'
p60
g12
((ltRp61
sS'email_confirmed'
p62
I00
sS'conf'
p63
(dp64
sS'password'
p65
S'sha256$17de3e2a14a6581d928bd0511bd748a4fbcb3f1c4c3a58d9554433cadbeab950$d3f49d9c2d35d92d446463f9234556927a09145cfac9250c2fd13796bad39b12'
p66
sS'email'
p67
S''
saa.