(dp1
S'saved_by_info'
p2
(dp3
sS'tags'
p4
(dp5
Vcse07
p6
(lp7
I0
asS'pub'
p8
(lp9
I1
assS'id_number'
p10
I13
sS'pretty_print'
p11
I00
sS'system'
p12
S'sage'
p13
sS'published_id_number'
p14
NsS'owner'
p15
S'pub'
p16
sS'viewers'
p17
(lp18
sS'ratings'
p19
(lp20
(Vajeet.kumar
I2
Vleave a comment
tp21
asS'collaborators'
p22
(lp23
sS'name'
p24
VEntity Relationship Model
p25
sS'auto_publish'
p26
I00
sS'last_change'
p27
(Vcse07
p28
F1392965515.674572
tp29
sS'worksheet_that_was_published'
p30
(Vcse07
p31
I4
tp32
s.