(dp1
S'saved_by_info'
p2
(dp3
sS'tags'
p4
(dp5
Vcse07
p6
(lp7
I0
asS'pub'
p8
(lp9
I1
assS'id_number'
p10
I22
sS'pretty_print'
p11
I00
sS'system'
p12
S'sage'
p13
sS'published_id_number'
p14
NsS'owner'
p15
S'pub'
p16
sS'viewers'
p17
(lp18
sS'ratings'
p19
(lp20
sS'collaborators'
p21
(lp22
sS'name'
p23
VSQL-III: Retrieving Data
p24
sS'auto_publish'
p25
I00
sS'last_change'
p26
(Vcse07
p27
F1392997490.07163
tp28
sS'worksheet_that_was_published'
p29
(Vcse07
p30
I10
tp31
s.